   1              		.cpu arm7tdmi
   2              		.fpu softvfp
   3              		.eabi_attribute 20, 1
   4              		.eabi_attribute 21, 1
   5              		.eabi_attribute 23, 3
   6              		.eabi_attribute 24, 1
   7              		.eabi_attribute 25, 1
   8              		.eabi_attribute 26, 1
   9              		.eabi_attribute 30, 6
  10              		.eabi_attribute 18, 4
  11              		.file	"main.c"
  21              	.Ltext0:
  22              		.file 1 "../main.c"
 999              		.align	2
 1000              		.global	initRGB
 1002              	initRGB:
 1003              	.LFB0:
   1:../main.c     **** //#include <stdio.h>
   2:../main.c     **** #include "trafo.h"
   3:../main.c     **** #include "types.h"
   4:../main.c     **** #include "lena128.h"
   5:../main.c     **** 
   6:../main.c     **** pixelRGB imagenRGB[N][M];
   7:../main.c     **** unsigned char imagenGris[N][M];
   8:../main.c     **** unsigned char imagenBinaria[N][M];
   9:../main.c     **** unsigned char blancosPorFila[N];
  10:../main.c     **** 
  11:../main.c     **** void initRGB(pixelRGB m[N][M]) {
 1004              		.loc 1 11 0
 1005              		.cfi_startproc
 1006              		@ Function supports interworking.
 1007              		@ args = 0, pretend = 0, frame = 16
 1008              		@ frame_needed = 1, uses_anonymous_args = 0
 1009              		@ link register save eliminated.
 1010 0000 04B02DE5 		str	fp, [sp, #-4]!
 1011              	.LCFI0:
 1012              		.cfi_def_cfa_offset 4
 1013 0004 00B08DE2 		add	fp, sp, #0
 1014              		.cfi_offset 11, -4
 1015              	.LCFI1:
 1016              		.cfi_def_cfa_register 11
 1017 0008 14D04DE2 		sub	sp, sp, #20
 1018 000c 10000BE5 		str	r0, [fp, #-16]
  12:../main.c     ****     int i,j;
  13:../main.c     **** 
  14:../main.c     ****     for (i=0;i<N;i++)
 1019              		.loc 1 14 0
 1020 0010 0030A0E3 		mov	r3, #0
 1021 0014 08300BE5 		str	r3, [fp, #-8]
 1022 0018 560000EA 		b	.L2
 1023              	.L5:
  15:../main.c     ****         for (j=0; j<M; j++) {
 1024              		.loc 1 15 0
 1025 001c 0030A0E3 		mov	r3, #0
 1026 0020 0C300BE5 		str	r3, [fp, #-12]
 1027 0024 4D0000EA 		b	.L3
 1028              	.L4:
  16:../main.c     ****             m[i][j].R = lena128[(i*M + j)*3];
 1029              		.loc 1 16 0 discriminator 2
 1030 0028 08201BE5 		ldr	r2, [fp, #-8]
 1031 002c 0230A0E1 		mov	r3, r2
 1032 0030 8330A0E1 		mov	r3, r3, asl #1
 1033 0034 023083E0 		add	r3, r3, r2
 1034 0038 8333A0E1 		mov	r3, r3, asl #7
 1035 003c 10201BE5 		ldr	r2, [fp, #-16]
 1036 0040 030082E0 		add	r0, r2, r3
 1037 0044 08301BE5 		ldr	r3, [fp, #-8]
 1038 0048 8323A0E1 		mov	r2, r3, asl #7
 1039 004c 0C301BE5 		ldr	r3, [fp, #-12]
 1040 0050 032082E0 		add	r2, r2, r3
 1041 0054 0230A0E1 		mov	r3, r2
 1042 0058 8330A0E1 		mov	r3, r3, asl #1
 1043 005c 023083E0 		add	r3, r3, r2
 1044 0060 28219FE5 		ldr	r2, .L6
 1045 0064 0310D2E7 		ldrb	r1, [r2, r3]	@ zero_extendqisi2
 1046 0068 0C201BE5 		ldr	r2, [fp, #-12]
 1047 006c 0230A0E1 		mov	r3, r2
 1048 0070 8330A0E1 		mov	r3, r3, asl #1
 1049 0074 023083E0 		add	r3, r3, r2
 1050 0078 033080E0 		add	r3, r0, r3
 1051 007c 0120A0E1 		mov	r2, r1
 1052 0080 0020C3E5 		strb	r2, [r3, #0]
  17:../main.c     ****             m[i][j].G = lena128[(i*M + j)*3 + 1];
 1053              		.loc 1 17 0 discriminator 2
 1054 0084 08201BE5 		ldr	r2, [fp, #-8]
 1055 0088 0230A0E1 		mov	r3, r2
 1056 008c 8330A0E1 		mov	r3, r3, asl #1
 1057 0090 023083E0 		add	r3, r3, r2
 1058 0094 8333A0E1 		mov	r3, r3, asl #7
 1059 0098 10201BE5 		ldr	r2, [fp, #-16]
 1060 009c 03C082E0 		add	ip, r2, r3
 1061 00a0 08301BE5 		ldr	r3, [fp, #-8]
 1062 00a4 8323A0E1 		mov	r2, r3, asl #7
 1063 00a8 0C301BE5 		ldr	r3, [fp, #-12]
 1064 00ac 032082E0 		add	r2, r2, r3
 1065 00b0 0230A0E1 		mov	r3, r2
 1066 00b4 8330A0E1 		mov	r3, r3, asl #1
 1067 00b8 023083E0 		add	r3, r3, r2
 1068 00bc 013083E2 		add	r3, r3, #1
 1069 00c0 C8209FE5 		ldr	r2, .L6
 1070 00c4 0310D2E7 		ldrb	r1, [r2, r3]	@ zero_extendqisi2
 1071 00c8 0C201BE5 		ldr	r2, [fp, #-12]
 1072 00cc 0100A0E3 		mov	r0, #1
 1073 00d0 0230A0E1 		mov	r3, r2
 1074 00d4 8330A0E1 		mov	r3, r3, asl #1
 1075 00d8 023083E0 		add	r3, r3, r2
 1076 00dc 03308CE0 		add	r3, ip, r3
 1077 00e0 003083E0 		add	r3, r3, r0
 1078 00e4 0120A0E1 		mov	r2, r1
 1079 00e8 0020C3E5 		strb	r2, [r3, #0]
  18:../main.c     ****             m[i][j].B = lena128[(i*M + j)*3 + 2];
 1080              		.loc 1 18 0 discriminator 2
 1081 00ec 08201BE5 		ldr	r2, [fp, #-8]
 1082 00f0 0230A0E1 		mov	r3, r2
 1083 00f4 8330A0E1 		mov	r3, r3, asl #1
 1084 00f8 023083E0 		add	r3, r3, r2
 1085 00fc 8333A0E1 		mov	r3, r3, asl #7
 1086 0100 10201BE5 		ldr	r2, [fp, #-16]
 1087 0104 03C082E0 		add	ip, r2, r3
 1088 0108 08301BE5 		ldr	r3, [fp, #-8]
 1089 010c 8323A0E1 		mov	r2, r3, asl #7
 1090 0110 0C301BE5 		ldr	r3, [fp, #-12]
 1091 0114 032082E0 		add	r2, r2, r3
 1092 0118 0230A0E1 		mov	r3, r2
 1093 011c 8330A0E1 		mov	r3, r3, asl #1
 1094 0120 023083E0 		add	r3, r3, r2
 1095 0124 023083E2 		add	r3, r3, #2
 1096 0128 60209FE5 		ldr	r2, .L6
 1097 012c 0310D2E7 		ldrb	r1, [r2, r3]	@ zero_extendqisi2
 1098 0130 0C201BE5 		ldr	r2, [fp, #-12]
 1099 0134 0200A0E3 		mov	r0, #2
 1100 0138 0230A0E1 		mov	r3, r2
 1101 013c 8330A0E1 		mov	r3, r3, asl #1
 1102 0140 023083E0 		add	r3, r3, r2
 1103 0144 03308CE0 		add	r3, ip, r3
 1104 0148 003083E0 		add	r3, r3, r0
 1105 014c 0120A0E1 		mov	r2, r1
 1106 0150 0020C3E5 		strb	r2, [r3, #0]
  15:../main.c     ****         for (j=0; j<M; j++) {
 1107              		.loc 1 15 0 discriminator 2
 1108 0154 0C301BE5 		ldr	r3, [fp, #-12]
 1109 0158 013083E2 		add	r3, r3, #1
 1110 015c 0C300BE5 		str	r3, [fp, #-12]
 1111              	.L3:
  15:../main.c     ****         for (j=0; j<M; j++) {
 1112              		.loc 1 15 0 is_stmt 0 discriminator 1
 1113 0160 0C301BE5 		ldr	r3, [fp, #-12]
 1114 0164 7F0053E3 		cmp	r3, #127
 1115 0168 AEFFFFDA 		ble	.L4
  14:../main.c     ****     for (i=0;i<N;i++)
 1116              		.loc 1 14 0 is_stmt 1
 1117 016c 08301BE5 		ldr	r3, [fp, #-8]
 1118 0170 013083E2 		add	r3, r3, #1
 1119 0174 08300BE5 		str	r3, [fp, #-8]
 1120              	.L2:
  14:../main.c     ****     for (i=0;i<N;i++)
 1121              		.loc 1 14 0 is_stmt 0 discriminator 1
 1122 0178 08301BE5 		ldr	r3, [fp, #-8]
 1123 017c 7F0053E3 		cmp	r3, #127
 1124 0180 A5FFFFDA 		ble	.L5
  19:../main.c     ****         }
  20:../main.c     **** }
 1125              		.loc 1 20 0 is_stmt 1
 1126 0184 00D08BE2 		add	sp, fp, #0
 1127 0188 04B09DE4 		ldmfd	sp!, {fp}
 1128 018c 1EFF2FE1 		bx	lr
 1129              	.L7:
 1130              		.align	2
 1131              	.L6:
 1132 0190 00000000 		.word	lena128
 1133              		.cfi_endproc
 1134              	.LFE0:
 1136              		.align	2
 1137              		.global	main
 1139              	main:
 1140              	.LFB1:
  21:../main.c     **** 
  22:../main.c     **** int main(void) {
 1141              		.loc 1 22 0
 1142              		.cfi_startproc
 1143              		@ Function supports interworking.
 1144              		@ args = 0, pretend = 0, frame = 0
 1145              		@ frame_needed = 1, uses_anonymous_args = 0
 1146 0194 00482DE9 		stmfd	sp!, {fp, lr}
 1147              	.LCFI2:
 1148              		.cfi_def_cfa_offset 8
 1149 0198 04B08DE2 		add	fp, sp, #4
 1150              		.cfi_offset 14, -4
 1151              		.cfi_offset 11, -8
 1152              	.LCFI3:
 1153              		.cfi_def_cfa 11, 4
  23:../main.c     ****     // 1. Crear una matriz NxM a partir del array lena128
  24:../main.c     ****     initRGB(imagenRGB);
 1154              		.loc 1 24 0
 1155 019c 38009FE5 		ldr	r0, .L9
 1156 01a0 FEFFFFEB 		bl	initRGB
  25:../main.c     **** 
  26:../main.c     ****     // 2. Transformar la matriz RGB a una matriz de grises
  27:../main.c     ****     RGB2GrayMatrix(imagenRGB,imagenGris);
 1157              		.loc 1 27 0
 1158 01a4 30009FE5 		ldr	r0, .L9
 1159 01a8 30109FE5 		ldr	r1, .L9+4
 1160 01ac FEFFFFEB 		bl	RGB2GrayMatrix
  28:../main.c     **** 
  29:../main.c     ****     // 3. Transformar la matriz de grises a una matriz en blanco y negro
  30:../main.c     ****     Gray2BinaryMatrix(imagenGris,imagenBinaria);
 1161              		.loc 1 30 0
 1162 01b0 28009FE5 		ldr	r0, .L9+4
 1163 01b4 28109FE5 		ldr	r1, .L9+8
 1164 01b8 FEFFFFEB 		bl	Gray2BinaryMatrix
  31:../main.c     **** 
  32:../main.c     ****     // 4. Contar los blancos que aparecen por filas en imagenBinaria
  33:../main.c     ****     contarBlancos(imagenBinaria,blancosPorFila);
 1165              		.loc 1 33 0
 1166 01bc 20009FE5 		ldr	r0, .L9+8
 1167 01c0 20109FE5 		ldr	r1, .L9+12
 1168 01c4 FEFFFFEB 		bl	contarBlancos
  34:../main.c     **** 
  35:../main.c     ****     return 0;
 1169              		.loc 1 35 0
 1170 01c8 0030A0E3 		mov	r3, #0
  36:../main.c     **** }
 1171              		.loc 1 36 0
 1172 01cc 0300A0E1 		mov	r0, r3
 1173 01d0 04D04BE2 		sub	sp, fp, #4
 1174 01d4 0048BDE8 		ldmfd	sp!, {fp, lr}
 1175 01d8 1EFF2FE1 		bx	lr
 1176              	.L10:
 1177              		.align	2
 1178              	.L9:
 1179 01dc 00000000 		.word	imagenRGB
 1180 01e0 00000000 		.word	imagenGris
 1181 01e4 00000000 		.word	imagenBinaria
 1182 01e8 00000000 		.word	blancosPorFila
 1183              		.cfi_endproc
 1184              	.LFE1:
 1186              	.Letext0:
DEFINED SYMBOLS
                            *ABS*:00000000 main.c
                            *COM*:0000c000 imagenRGB
                            *COM*:00004000 imagenGris
                            *COM*:00004000 imagenBinaria
                            *COM*:00000080 blancosPorFila
C:\Users\marga\AppData\Local\Temp\ccr35bNU.s:999    .text:00000000 $a
C:\Users\marga\AppData\Local\Temp\ccr35bNU.s:1002   .text:00000000 initRGB
C:\Users\marga\AppData\Local\Temp\ccr35bNU.s:1132   .text:00000190 $d
C:\Users\marga\AppData\Local\Temp\ccr35bNU.s:1136   .text:00000194 $a
C:\Users\marga\AppData\Local\Temp\ccr35bNU.s:1139   .text:00000194 main
C:\Users\marga\AppData\Local\Temp\ccr35bNU.s:1179   .text:000001dc $d
                     .debug_frame:00000010 $d

UNDEFINED SYMBOLS
lena128
RGB2GrayMatrix
Gray2BinaryMatrix
contarBlancos
